target datalayout = "e-m:e-p270:32:32-p271:32:32-p272:64:64-i64:64-i128:128-f80:128-n8:16:32:64-S128"
target triple = "x86_64-pc-linux-gnu"

%struct._someip_parameter_struct_uat = type { i32, ptr, i32, i32, i8, i32, i32, ptr, i32, i32, ptr }

; Function Attrs: null_pointer_is_valid sspstrong uwtable
define internal void @free_someip_parameter_struct_cb(ptr noundef %0) #0 {
  %2 = alloca ptr, align 8
  %3 = alloca ptr, align 8
  store ptr %0, ptr %2, align 8
  call void @llvm.lifetime.start.p0(i64 8, ptr %3) #19
  %4 = load ptr, ptr %2, align 8
  store ptr %4, ptr %3, align 8
  %5 = load ptr, ptr %3, align 8
  %6 = getelementptr inbounds nuw %struct._someip_parameter_struct_uat, ptr %5, i32 0, i32 1
  %7 = load ptr, ptr %6, align 8
  %8 = icmp ne ptr %7, null
  br i1 %8, label %9, label %13

9:                                                ; preds = %1
  %10 = load ptr, ptr %3, align 8
  %11 = getelementptr inbounds nuw %struct._someip_parameter_struct_uat, ptr %10, i32 0, i32 1
  %12 = load ptr, ptr %11, align 8
  call void @g_free(ptr noundef %12)
  br label %13

13:                                               ; preds = %9, %1
  %14 = load ptr, ptr %3, align 8
  %15 = getelementptr inbounds nuw %struct._someip_parameter_struct_uat, ptr %14, i32 0, i32 1
  store ptr null, ptr %15, align 8
  %16 = load ptr, ptr %3, align 8
  %17 = getelementptr inbounds nuw %struct._someip_parameter_struct_uat, ptr %16, i32 0, i32 7
  %18 = load ptr, ptr %17, align 8
  %19 = icmp ne ptr %18, null
  br i1 %19, label %20, label %24

20:                                               ; preds = %13
  %21 = load ptr, ptr %3, align 8
  %22 = getelementptr inbounds nuw %struct._someip_parameter_struct_uat, ptr %21, i32 0, i32 7
  %23 = load ptr, ptr %22, align 8
  call void @g_free(ptr noundef %23)
  br label %24

24:                                               ; preds = %20, %13
  %25 = load ptr, ptr %3, align 8
  %26 = getelementptr inbounds nuw %struct._someip_parameter_struct_uat, ptr %25, i32 0, i32 7
  store ptr null, ptr %26, align 8
  %27 = load ptr, ptr %3, align 8
  %28 = getelementptr inbounds nuw %struct._someip_parameter_struct_uat, ptr %27, i32 0, i32 10
  %29 = load ptr, ptr %28, align 8
  %30 = icmp ne ptr %29, null
  br i1 %30, label %31, label %35

31:                                               ; preds = %24
  %32 = load ptr, ptr %3, align 8
  %33 = getelementptr inbounds nuw %struct._someip_parameter_struct_uat, ptr %32, i32 0, i32 10
  %34 = load ptr, ptr %33, align 8
  call void @g_free(ptr noundef %34)
  br label %35

35:                                               ; preds = %31, %24
  %36 = load ptr, ptr %3, align 8
  %37 = getelementptr inbounds nuw %struct._someip_parameter_struct_uat, ptr %36, i32 0, i32 10
  store ptr null, ptr %37, align 8
  call void @llvm.lifetime.end.p0(i64 8, ptr %3) #19
  ret void
}